; Function Attrs: mustprogress nofree norecurse nosync nounwind willreturn memory(argmem: write) uwtable
define void @_ZN4base25SharedMemoryCreateOptionsC2Ev(ptr noundef nonnull writeonly align 8 captures(none) dereferenceable(26) initializes((0, 9), (16, 26)) %0) unnamed_addr #0 align 2 {
  store ptr null, ptr %0, align 8, !tbaa !3
  %2 = getelementptr inbounds nuw i8, ptr %0, i64 8
  store i8 0, ptr %2, align 8, !tbaa !11
  %3 = getelementptr inbounds nuw i8, ptr %0, i64 16
  store i64 0, ptr %3, align 8, !tbaa !12
  %4 = getelementptr inbounds nuw i8, ptr %0, i64 24
  store i8 0, ptr %4, align 8, !tbaa !13
  %5 = getelementptr inbounds nuw i8, ptr %0, i64 25
  store i8 0, ptr %5, align 1, !tbaa !14
  ret void
}